target datalayout = "e-m:e-p270:32:32-p271:32:32-p272:64:64-i64:64-i128:128-f80:128-n8:16:32:64-S128"
target triple = "x86_64-pc-linux-gnu"

%class.TransTableL = type { %class.TransTable, i32, i32, i32, i32, i32, i32, %"struct.TransTableL::pageStatsType", [8192 x %"struct.TransTableL::aggrType"], [12 x [4 x ptr]], [12 x [4 x ptr]], ptr, ptr, %"struct.TransTableL::harvestedType", i32, i32 }
%class.TransTable = type { ptr }
%"struct.TransTableL::pageStatsType" = type { i32, i32, i32, i32, i32 }
%"struct.TransTableL::aggrType" = type { [4 x i32], [4 x [4 x i32]] }
%"struct.TransTableL::harvestedType" = type { i32, [1000 x ptr] }

; Function Attrs: mustprogress nounwind uwtable
define void @_ZN11TransTableL4InitEPA15_Ki(ptr noundef nonnull align 8 dereferenceable(664216) %0, ptr noundef %1) unnamed_addr #5 align 2 {
  %3 = alloca ptr, align 8
  %4 = alloca ptr, align 8
  %5 = alloca i32, align 4
  %6 = alloca i32, align 4
  %7 = alloca ptr, align 8
  %8 = alloca i32, align 4
  %9 = alloca i32, align 4
  %10 = alloca i32, align 4
  store ptr %0, ptr %3, align 8
  store ptr %1, ptr %4, align 8
  %11 = load ptr, ptr %3, align 8
  store i32 1, ptr %5, align 4
  store i32 2, ptr %6, align 4
  store i32 0, ptr %8, align 4
  br label %12

12:                                               ; preds = %50, %2
  %13 = load i32, ptr %8, align 4
  %14 = icmp slt i32 %13, 4
  br i1 %14, label %15, label %53

15:                                               ; preds = %12
  %16 = getelementptr inbounds nuw %class.TransTableL, ptr %11, i32 0, i32 8
  %17 = getelementptr inbounds [8192 x %"struct.TransTableL::aggrType"], ptr %16, i64 0, i64 0
  %18 = getelementptr inbounds nuw %"struct.TransTableL::aggrType", ptr %17, i32 0, i32 0
  %19 = load i32, ptr %8, align 4
  %20 = sext i32 %19 to i64
  %21 = getelementptr inbounds [4 x i32], ptr %18, i64 0, i64 %20
  store i32 0, ptr %21, align 4
  %22 = getelementptr inbounds nuw %class.TransTableL, ptr %11, i32 0, i32 8
  %23 = getelementptr inbounds [8192 x %"struct.TransTableL::aggrType"], ptr %22, i64 0, i64 0
  %24 = getelementptr inbounds nuw %"struct.TransTableL::aggrType", ptr %23, i32 0, i32 1
  %25 = load i32, ptr %8, align 4
  %26 = sext i32 %25 to i64
  %27 = getelementptr inbounds [4 x [4 x i32]], ptr %24, i64 0, i64 %26
  %28 = getelementptr inbounds [4 x i32], ptr %27, i64 0, i64 0
  store i32 0, ptr %28, align 4
  %29 = getelementptr inbounds nuw %class.TransTableL, ptr %11, i32 0, i32 8
  %30 = getelementptr inbounds [8192 x %"struct.TransTableL::aggrType"], ptr %29, i64 0, i64 0
  %31 = getelementptr inbounds nuw %"struct.TransTableL::aggrType", ptr %30, i32 0, i32 1
  %32 = load i32, ptr %8, align 4
  %33 = sext i32 %32 to i64
  %34 = getelementptr inbounds [4 x [4 x i32]], ptr %31, i64 0, i64 %33
  %35 = getelementptr inbounds [4 x i32], ptr %34, i64 0, i64 1
  store i32 0, ptr %35, align 4
  %36 = getelementptr inbounds nuw %class.TransTableL, ptr %11, i32 0, i32 8
  %37 = getelementptr inbounds [8192 x %"struct.TransTableL::aggrType"], ptr %36, i64 0, i64 0
  %38 = getelementptr inbounds nuw %"struct.TransTableL::aggrType", ptr %37, i32 0, i32 1
  %39 = load i32, ptr %8, align 4
  %40 = sext i32 %39 to i64
  %41 = getelementptr inbounds [4 x [4 x i32]], ptr %38, i64 0, i64 %40
  %42 = getelementptr inbounds [4 x i32], ptr %41, i64 0, i64 2
  store i32 0, ptr %42, align 4
  %43 = getelementptr inbounds nuw %class.TransTableL, ptr %11, i32 0, i32 8
  %44 = getelementptr inbounds [8192 x %"struct.TransTableL::aggrType"], ptr %43, i64 0, i64 0
  %45 = getelementptr inbounds nuw %"struct.TransTableL::aggrType", ptr %44, i32 0, i32 1
  %46 = load i32, ptr %8, align 4
  %47 = sext i32 %46 to i64
  %48 = getelementptr inbounds [4 x [4 x i32]], ptr %45, i64 0, i64 %47
  %49 = getelementptr inbounds [4 x i32], ptr %48, i64 0, i64 3
  store i32 0, ptr %49, align 4
  br label %50

50:                                               ; preds = %15
  %51 = load i32, ptr %8, align 4
  %52 = add nsw i32 %51, 1
  store i32 %52, ptr %8, align 4
  br label %12, !llvm.loop !8

53:                                               ; preds = %12
  store i32 1, ptr %9, align 4
  br label %54

54:                                               ; preds = %272, %53
  %55 = load i32, ptr %9, align 4
  %56 = icmp ult i32 %55, 8192
  br i1 %56, label %57, label %275

57:                                               ; preds = %54
  %58 = load i32, ptr %9, align 4
  %59 = load i32, ptr %5, align 4
  %60 = shl i32 %59, 1
  %61 = icmp uge i32 %58, %60
  br i1 %61, label %62, label %67

62:                                               ; preds = %57
  %63 = load i32, ptr %5, align 4
  %64 = shl i32 %63, 1
  store i32 %64, ptr %5, align 4
  %65 = load i32, ptr %6, align 4
  %66 = add i32 %65, 1
  store i32 %66, ptr %6, align 4
  br label %67

67:                                               ; preds = %62, %57
  %68 = getelementptr inbounds nuw %class.TransTableL, ptr %11, i32 0, i32 8
  %69 = load i32, ptr %9, align 4
  %70 = load i32, ptr %5, align 4
  %71 = xor i32 %69, %70
  %72 = zext i32 %71 to i64
  %73 = getelementptr inbounds [8192 x %"struct.TransTableL::aggrType"], ptr %68, i64 0, i64 %72
  %74 = getelementptr inbounds nuw %class.TransTableL, ptr %11, i32 0, i32 8
  %75 = load i32, ptr %9, align 4
  %76 = zext i32 %75 to i64
  %77 = getelementptr inbounds [8192 x %"struct.TransTableL::aggrType"], ptr %74, i64 0, i64 %76
  call void @llvm.memcpy.p0.p0.i64(ptr align 4 %77, ptr align 4 %73, i64 80, i1 false)
  %78 = getelementptr inbounds nuw %class.TransTableL, ptr %11, i32 0, i32 8
  %79 = load i32, ptr %9, align 4
  %80 = zext i32 %79 to i64
  %81 = getelementptr inbounds [8192 x %"struct.TransTableL::aggrType"], ptr %78, i64 0, i64 %80
  store ptr %81, ptr %7, align 8
  store i32 0, ptr %10, align 4
  br label %82

82:                                               ; preds = %108, %67
  %83 = load i32, ptr %10, align 4
  %84 = icmp slt i32 %83, 4
  br i1 %84, label %85, label %111

85:                                               ; preds = %82
  %86 = load ptr, ptr %7, align 8
  %87 = getelementptr inbounds nuw %"struct.TransTableL::aggrType", ptr %86, i32 0, i32 0
  %88 = load i32, ptr %10, align 4
  %89 = sext i32 %88 to i64
  %90 = getelementptr inbounds [4 x i32], ptr %87, i64 0, i64 %89
  %91 = load i32, ptr %90, align 4
  %92 = lshr i32 %91, 2
  %93 = load ptr, ptr %4, align 8
  %94 = load i32, ptr %10, align 4
  %95 = sext i32 %94 to i64
  %96 = getelementptr inbounds [15 x i32], ptr %93, i64 %95
  %97 = load i32, ptr %6, align 4
  %98 = zext i32 %97 to i64
  %99 = getelementptr inbounds [15 x i32], ptr %96, i64 0, i64 %98
  %100 = load i32, ptr %99, align 4
  %101 = shl i32 %100, 24
  %102 = or i32 %92, %101
  %103 = load ptr, ptr %7, align 8
  %104 = getelementptr inbounds nuw %"struct.TransTableL::aggrType", ptr %103, i32 0, i32 0
  %105 = load i32, ptr %10, align 4
  %106 = sext i32 %105 to i64
  %107 = getelementptr inbounds [4 x i32], ptr %104, i64 0, i64 %106
  store i32 %102, ptr %107, align 4
  br label %108

108:                                              ; preds = %85
  %109 = load i32, ptr %10, align 4
  %110 = add nsw i32 %109, 1
  store i32 %110, ptr %10, align 4
  br label %82, !llvm.loop !9

111:                                              ; preds = %82
  %112 = load ptr, ptr %7, align 8
  %113 = getelementptr inbounds nuw %"struct.TransTableL::aggrType", ptr %112, i32 0, i32 0
  %114 = getelementptr inbounds [4 x i32], ptr %113, i64 0, i64 0
  %115 = load i32, ptr %114, align 4
  %116 = shl i32 %115, 6
  %117 = and i32 %116, -16777216
  %118 = load ptr, ptr %7, align 8
  %119 = getelementptr inbounds nuw %"struct.TransTableL::aggrType", ptr %118, i32 0, i32 1
  %120 = getelementptr inbounds [4 x [4 x i32]], ptr %119, i64 0, i64 0
  %121 = getelementptr inbounds [4 x i32], ptr %120, i64 0, i64 0
  store i32 %117, ptr %121, align 4
  %122 = load ptr, ptr %7, align 8
  %123 = getelementptr inbounds nuw %"struct.TransTableL::aggrType", ptr %122, i32 0, i32 0
  %124 = getelementptr inbounds [4 x i32], ptr %123, i64 0, i64 0
  %125 = load i32, ptr %124, align 4
  %126 = shl i32 %125, 14
  %127 = and i32 %126, -16777216
  %128 = load ptr, ptr %7, align 8
  %129 = getelementptr inbounds nuw %"struct.TransTableL::aggrType", ptr %128, i32 0, i32 1
  %130 = getelementptr inbounds [4 x [4 x i32]], ptr %129, i64 0, i64 0
  %131 = getelementptr inbounds [4 x i32], ptr %130, i64 0, i64 1
  store i32 %127, ptr %131, align 4
  %132 = load ptr, ptr %7, align 8
  %133 = getelementptr inbounds nuw %"struct.TransTableL::aggrType", ptr %132, i32 0, i32 0
  %134 = getelementptr inbounds [4 x i32], ptr %133, i64 0, i64 0
  %135 = load i32, ptr %134, align 4
  %136 = shl i32 %135, 22
  %137 = and i32 %136, -16777216
  %138 = load ptr, ptr %7, align 8
  %139 = getelementptr inbounds nuw %"struct.TransTableL::aggrType", ptr %138, i32 0, i32 1
  %140 = getelementptr inbounds [4 x [4 x i32]], ptr %139, i64 0, i64 0
  %141 = getelementptr inbounds [4 x i32], ptr %140, i64 0, i64 2
  store i32 %137, ptr %141, align 4
  %142 = load ptr, ptr %7, align 8
  %143 = getelementptr inbounds nuw %"struct.TransTableL::aggrType", ptr %142, i32 0, i32 0
  %144 = getelementptr inbounds [4 x i32], ptr %143, i64 0, i64 0
  %145 = load i32, ptr %144, align 4
  %146 = shl i32 %145, 30
  %147 = and i32 %146, -16777216
  %148 = load ptr, ptr %7, align 8
  %149 = getelementptr inbounds nuw %"struct.TransTableL::aggrType", ptr %148, i32 0, i32 1
  %150 = getelementptr inbounds [4 x [4 x i32]], ptr %149, i64 0, i64 0
  %151 = getelementptr inbounds [4 x i32], ptr %150, i64 0, i64 3
  store i32 %147, ptr %151, align 4
  %152 = load ptr, ptr %7, align 8
  %153 = getelementptr inbounds nuw %"struct.TransTableL::aggrType", ptr %152, i32 0, i32 0
  %154 = getelementptr inbounds [4 x i32], ptr %153, i64 0, i64 1
  %155 = load i32, ptr %154, align 4
  %156 = lshr i32 %155, 2
  %157 = and i32 %156, 16711680
  %158 = load ptr, ptr %7, align 8
  %159 = getelementptr inbounds nuw %"struct.TransTableL::aggrType", ptr %158, i32 0, i32 1
  %160 = getelementptr inbounds [4 x [4 x i32]], ptr %159, i64 0, i64 1
  %161 = getelementptr inbounds [4 x i32], ptr %160, i64 0, i64 0
  store i32 %157, ptr %161, align 4
  %162 = load ptr, ptr %7, align 8
  %163 = getelementptr inbounds nuw %"struct.TransTableL::aggrType", ptr %162, i32 0, i32 0
  %164 = getelementptr inbounds [4 x i32], ptr %163, i64 0, i64 1
  %165 = load i32, ptr %164, align 4
  %166 = shl i32 %165, 6
  %167 = and i32 %166, 16711680
  %168 = load ptr, ptr %7, align 8
  %169 = getelementptr inbounds nuw %"struct.TransTableL::aggrType", ptr %168, i32 0, i32 1
  %170 = getelementptr inbounds [4 x [4 x i32]], ptr %169, i64 0, i64 1
  %171 = getelementptr inbounds [4 x i32], ptr %170, i64 0, i64 1
  store i32 %167, ptr %171, align 4
  %172 = load ptr, ptr %7, align 8
  %173 = getelementptr inbounds nuw %"struct.TransTableL::aggrType", ptr %172, i32 0, i32 0
  %174 = getelementptr inbounds [4 x i32], ptr %173, i64 0, i64 1
  %175 = load i32, ptr %174, align 4
  %176 = shl i32 %175, 14
  %177 = and i32 %176, 16711680
  %178 = load ptr, ptr %7, align 8
  %179 = getelementptr inbounds nuw %"struct.TransTableL::aggrType", ptr %178, i32 0, i32 1
  %180 = getelementptr inbounds [4 x [4 x i32]], ptr %179, i64 0, i64 1
  %181 = getelementptr inbounds [4 x i32], ptr %180, i64 0, i64 2
  store i32 %177, ptr %181, align 4
  %182 = load ptr, ptr %7, align 8
  %183 = getelementptr inbounds nuw %"struct.TransTableL::aggrType", ptr %182, i32 0, i32 0
  %184 = getelementptr inbounds [4 x i32], ptr %183, i64 0, i64 1
  %185 = load i32, ptr %184, align 4
  %186 = shl i32 %185, 22
  %187 = and i32 %186, 16711680
  %188 = load ptr, ptr %7, align 8
  %189 = getelementptr inbounds nuw %"struct.TransTableL::aggrType", ptr %188, i32 0, i32 1
  %190 = getelementptr inbounds [4 x [4 x i32]], ptr %189, i64 0, i64 1
  %191 = getelementptr inbounds [4 x i32], ptr %190, i64 0, i64 3
  store i32 %187, ptr %191, align 4
  %192 = load ptr, ptr %7, align 8
  %193 = getelementptr inbounds nuw %"struct.TransTableL::aggrType", ptr %192, i32 0, i32 0
  %194 = getelementptr inbounds [4 x i32], ptr %193, i64 0, i64 2
  %195 = load i32, ptr %194, align 4
  %196 = lshr i32 %195, 10
  %197 = and i32 %196, 65280
  %198 = load ptr, ptr %7, align 8
  %199 = getelementptr inbounds nuw %"struct.TransTableL::aggrType", ptr %198, i32 0, i32 1
  %200 = getelementptr inbounds [4 x [4 x i32]], ptr %199, i64 0, i64 2
  %201 = getelementptr inbounds [4 x i32], ptr %200, i64 0, i64 0
  store i32 %197, ptr %201, align 4
  %202 = load ptr, ptr %7, align 8
  %203 = getelementptr inbounds nuw %"struct.TransTableL::aggrType", ptr %202, i32 0, i32 0
  %204 = getelementptr inbounds [4 x i32], ptr %203, i64 0, i64 2
  %205 = load i32, ptr %204, align 4
  %206 = lshr i32 %205, 2
  %207 = and i32 %206, 65280
  %208 = load ptr, ptr %7, align 8
  %209 = getelementptr inbounds nuw %"struct.TransTableL::aggrType", ptr %208, i32 0, i32 1
  %210 = getelementptr inbounds [4 x [4 x i32]], ptr %209, i64 0, i64 2
  %211 = getelementptr inbounds [4 x i32], ptr %210, i64 0, i64 1
  store i32 %207, ptr %211, align 4
  %212 = load ptr, ptr %7, align 8
  %213 = getelementptr inbounds nuw %"struct.TransTableL::aggrType", ptr %212, i32 0, i32 0
  %214 = getelementptr inbounds [4 x i32], ptr %213, i64 0, i64 2
  %215 = load i32, ptr %214, align 4
  %216 = shl i32 %215, 6
  %217 = and i32 %216, 65280
  %218 = load ptr, ptr %7, align 8
  %219 = getelementptr inbounds nuw %"struct.TransTableL::aggrType", ptr %218, i32 0, i32 1
  %220 = getelementptr inbounds [4 x [4 x i32]], ptr %219, i64 0, i64 2
  %221 = getelementptr inbounds [4 x i32], ptr %220, i64 0, i64 2
  store i32 %217, ptr %221, align 4
  %222 = load ptr, ptr %7, align 8
  %223 = getelementptr inbounds nuw %"struct.TransTableL::aggrType", ptr %222, i32 0, i32 0
  %224 = getelementptr inbounds [4 x i32], ptr %223, i64 0, i64 2
  %225 = load i32, ptr %224, align 4
  %226 = shl i32 %225, 14
  %227 = and i32 %226, 65280
  %228 = load ptr, ptr %7, align 8
  %229 = getelementptr inbounds nuw %"struct.TransTableL::aggrType", ptr %228, i32 0, i32 1
  %230 = getelementptr inbounds [4 x [4 x i32]], ptr %229, i64 0, i64 2
  %231 = getelementptr inbounds [4 x i32], ptr %230, i64 0, i64 3
  store i32 %227, ptr %231, align 4
  %232 = load ptr, ptr %7, align 8
  %233 = getelementptr inbounds nuw %"struct.TransTableL::aggrType", ptr %232, i32 0, i32 0
  %234 = getelementptr inbounds [4 x i32], ptr %233, i64 0, i64 3
  %235 = load i32, ptr %234, align 4
  %236 = lshr i32 %235, 18
  %237 = and i32 %236, 255
  %238 = load ptr, ptr %7, align 8
  %239 = getelementptr inbounds nuw %"struct.TransTableL::aggrType", ptr %238, i32 0, i32 1
  %240 = getelementptr inbounds [4 x [4 x i32]], ptr %239, i64 0, i64 3
  %241 = getelementptr inbounds [4 x i32], ptr %240, i64 0, i64 0
  store i32 %237, ptr %241, align 4
  %242 = load ptr, ptr %7, align 8
  %243 = getelementptr inbounds nuw %"struct.TransTableL::aggrType", ptr %242, i32 0, i32 0
  %244 = getelementptr inbounds [4 x i32], ptr %243, i64 0, i64 3
  %245 = load i32, ptr %244, align 4
  %246 = lshr i32 %245, 10
  %247 = and i32 %246, 255
  %248 = load ptr, ptr %7, align 8
  %249 = getelementptr inbounds nuw %"struct.TransTableL::aggrType", ptr %248, i32 0, i32 1
  %250 = getelementptr inbounds [4 x [4 x i32]], ptr %249, i64 0, i64 3
  %251 = getelementptr inbounds [4 x i32], ptr %250, i64 0, i64 1
  store i32 %247, ptr %251, align 4
  %252 = load ptr, ptr %7, align 8
  %253 = getelementptr inbounds nuw %"struct.TransTableL::aggrType", ptr %252, i32 0, i32 0
  %254 = getelementptr inbounds [4 x i32], ptr %253, i64 0, i64 3
  %255 = load i32, ptr %254, align 4
  %256 = lshr i32 %255, 2
  %257 = and i32 %256, 255
  %258 = load ptr, ptr %7, align 8
  %259 = getelementptr inbounds nuw %"struct.TransTableL::aggrType", ptr %258, i32 0, i32 1
  %260 = getelementptr inbounds [4 x [4 x i32]], ptr %259, i64 0, i64 3
  %261 = getelementptr inbounds [4 x i32], ptr %260, i64 0, i64 2
  store i32 %257, ptr %261, align 4
  %262 = load ptr, ptr %7, align 8
  %263 = getelementptr inbounds nuw %"struct.TransTableL::aggrType", ptr %262, i32 0, i32 0
  %264 = getelementptr inbounds [4 x i32], ptr %263, i64 0, i64 3
  %265 = load i32, ptr %264, align 4
  %266 = shl i32 %265, 6
  %267 = and i32 %266, 255
  %268 = load ptr, ptr %7, align 8
  %269 = getelementptr inbounds nuw %"struct.TransTableL::aggrType", ptr %268, i32 0, i32 1
  %270 = getelementptr inbounds [4 x [4 x i32]], ptr %269, i64 0, i64 3
  %271 = getelementptr inbounds [4 x i32], ptr %270, i64 0, i64 3
  store i32 %267, ptr %271, align 4
  br label %272

272:                                              ; preds = %111
  %273 = load i32, ptr %9, align 4
  %274 = add i32 %273, 1
  store i32 %274, ptr %9, align 4
  br label %54, !llvm.loop !10

275:                                              ; preds = %54
  ret void
}