; Function Attrs: mustprogress nofree norecurse nosync nounwind memory(argmem: readwrite) uwtable
define void @_ZN11TransTableL4InitEPA15_Ki(ptr nocapture noundef nonnull align 8 dereferenceable(664216) %0, ptr nocapture noundef readonly %1) unnamed_addr #9 align 2 {
.preheader:
  %2 = getelementptr inbounds nuw i8, ptr %0, i64 52
  tail call void @llvm.memset.p0.i64(ptr noundef nonnull align 4 dereferenceable(80) %2, i8 0, i64 80, i1 false)
  br label %3

3:                                                ; preds = %.preheader, %21
  %indvars.iv72 = phi i64 [ 1, %.preheader ], [ %indvars.iv.next73, %21 ]
  %.06068 = phi i32 [ 1, %.preheader ], [ %spec.select64, %21 ]
  %.06167 = phi i32 [ 2, %.preheader ], [ %spec.select, %21 ]
  %4 = shl i32 %.06068, 1
  %5 = zext i32 %4 to i64
  %.not = icmp uge i64 %indvars.iv72, %5
  %6 = zext i1 %.not to i32
  %spec.select = add i32 %.06167, %6
  %spec.select64 = select i1 %.not, i32 %4, i32 %.06068
  %7 = trunc nuw nsw i64 %indvars.iv72 to i32
  %8 = xor i32 %spec.select64, %7
  %9 = zext i32 %8 to i64
  %10 = getelementptr inbounds [8192 x %"struct.TransTableL::aggrType"], ptr %2, i64 0, i64 %9
  %11 = getelementptr inbounds [8192 x %"struct.TransTableL::aggrType"], ptr %2, i64 0, i64 %indvars.iv72
  tail call void @llvm.memcpy.p0.p0.i64(ptr noundef nonnull align 4 dereferenceable(80) %11, ptr noundef nonnull align 4 dereferenceable(80) %10, i64 80, i1 false)
  %12 = zext i32 %spec.select to i64
  br label %13

13:                                               ; preds = %3, %13
  %indvars.iv = phi i64 [ 0, %3 ], [ %indvars.iv.next, %13 ]
  %14 = getelementptr inbounds [4 x i32], ptr %11, i64 0, i64 %indvars.iv
  %15 = load i32, ptr %14, align 4
  %16 = lshr i32 %15, 2
  %17 = getelementptr inbounds [15 x i32], ptr %1, i64 %indvars.iv, i64 %12
  %18 = load i32, ptr %17, align 4
  %19 = shl i32 %18, 24
  %20 = or i32 %19, %16
  store i32 %20, ptr %14, align 4
  %indvars.iv.next = add nuw nsw i64 %indvars.iv, 1
  %exitcond.not = icmp eq i64 %indvars.iv.next, 4
  br i1 %exitcond.not, label %21, label %13, !llvm.loop !11

21:                                               ; preds = %13
  %22 = load i32, ptr %11, align 4
  %23 = shl i32 %22, 6
  %24 = and i32 %23, -16777216
  %25 = getelementptr inbounds nuw i8, ptr %11, i64 16
  store i32 %24, ptr %25, align 4
  %26 = shl i32 %22, 14
  %27 = and i32 %26, -16777216
  %28 = getelementptr inbounds i8, ptr %11, i64 20
  store i32 %27, ptr %28, align 8
  %29 = shl i32 %22, 22
  %30 = and i32 %29, -16777216
  %31 = getelementptr inbounds i8, ptr %11, i64 24
  store i32 %30, ptr %31, align 4
  %32 = shl i32 %22, 30
  %33 = getelementptr inbounds i8, ptr %11, i64 28
  store i32 %32, ptr %33, align 8
  %34 = getelementptr inbounds i8, ptr %11, i64 4
  %35 = load i32, ptr %34, align 8
  %36 = lshr i32 %35, 2
  %37 = and i32 %36, 16711680
  %38 = getelementptr inbounds i8, ptr %11, i64 32
  store i32 %37, ptr %38, align 4
  %39 = shl i32 %35, 6
  %40 = and i32 %39, 16711680
  %41 = getelementptr inbounds i8, ptr %11, i64 36
  store i32 %40, ptr %41, align 8
  %42 = shl i32 %35, 14
  %43 = and i32 %42, 16711680
  %44 = getelementptr inbounds i8, ptr %11, i64 40
  store i32 %43, ptr %44, align 4
  %45 = shl i32 %35, 22
  %46 = and i32 %45, 12582912
  %47 = getelementptr inbounds i8, ptr %11, i64 44
  store i32 %46, ptr %47, align 8
  %48 = getelementptr inbounds i8, ptr %11, i64 8
  %49 = load i32, ptr %48, align 4
  %50 = lshr i32 %49, 10
  %51 = and i32 %50, 65280
  %52 = getelementptr inbounds i8, ptr %11, i64 48
  store i32 %51, ptr %52, align 4
  %53 = lshr i32 %49, 2
  %54 = and i32 %53, 65280
  %55 = getelementptr inbounds i8, ptr %11, i64 52
  store i32 %54, ptr %55, align 8
  %56 = shl i32 %49, 6
  %57 = and i32 %56, 65280
  %58 = getelementptr inbounds i8, ptr %11, i64 56
  store i32 %57, ptr %58, align 4
  %59 = shl i32 %49, 14
  %60 = and i32 %59, 49152
  %61 = getelementptr inbounds i8, ptr %11, i64 60
  store i32 %60, ptr %61, align 8
  %62 = getelementptr inbounds i8, ptr %11, i64 12
  %63 = load i32, ptr %62, align 8
  %64 = lshr i32 %63, 18
  %65 = and i32 %64, 255
  %66 = getelementptr inbounds i8, ptr %11, i64 64
  store i32 %65, ptr %66, align 4
  %67 = lshr i32 %63, 10
  %68 = and i32 %67, 255
  %69 = getelementptr inbounds i8, ptr %11, i64 68
  store i32 %68, ptr %69, align 8
  %70 = lshr i32 %63, 2
  %71 = and i32 %70, 255
  %72 = getelementptr inbounds i8, ptr %11, i64 72
  store i32 %71, ptr %72, align 4
  %73 = shl i32 %63, 6
  %74 = and i32 %73, 192
  %75 = getelementptr inbounds i8, ptr %11, i64 76
  store i32 %74, ptr %75, align 8
  %indvars.iv.next73 = add nuw nsw i64 %indvars.iv72, 1
  %exitcond75.not = icmp eq i64 %indvars.iv.next73, 8192
  br i1 %exitcond75.not, label %76, label %3, !llvm.loop !12

76:                                               ; preds = %21
  ret void
}